; Function Attrs: nounwind uwtable
define noalias nonnull ptr @l_Lean_Expr_withAppAux___at_Lean_Elab_Tactic_BVDecide_Frontend_Normalize_isSupportedMatch_verifySimpleEnum___spec__3___lambda__1___boxed(ptr noundef %0, ptr noundef %1, ptr noundef %2, ptr noundef %3, ptr noundef %4, ptr noundef %5) #1 {
  tail call void @lean_inc_heartbeat() #4
  %7 = tail call noalias ptr @mi_malloc_small(i64 noundef 24) #4
  %8 = icmp eq ptr %7, null
  br i1 %8, label %9, label %l_Lean_Expr_withAppAux___at_Lean_Elab_Tactic_BVDecide_Frontend_Normalize_isSupportedMatch_verifySimpleEnum___spec__3___lambda__1.exit

9:                                                ; preds = %6
  tail call void @lean_internal_panic_out_of_memory() #5
  unreachable

l_Lean_Expr_withAppAux___at_Lean_Elab_Tactic_BVDecide_Frontend_Normalize_isSupportedMatch_verifySimpleEnum___spec__3___lambda__1.exit: ; preds = %6
  %10 = getelementptr inbounds nuw i8, ptr %7, i64 4
  store i32 1, ptr %7, align 4, !tbaa !8
  store i32 131096, ptr %10, align 4
  %11 = getelementptr inbounds nuw i8, ptr %7, i64 8
  store ptr inttoptr (i64 3 to ptr), ptr %11, align 8, !tbaa !4
  %12 = getelementptr inbounds nuw i8, ptr %7, i64 16
  store ptr %5, ptr %12, align 8, !tbaa !4
  %13 = ptrtoint ptr %4 to i64
  %14 = and i64 %13, 1
  %.not = icmp eq i64 %14, 0
  br i1 %.not, label %15, label %lean_dec.exit15

15:                                               ; preds = %l_Lean_Expr_withAppAux___at_Lean_Elab_Tactic_BVDecide_Frontend_Normalize_isSupportedMatch_verifySimpleEnum___spec__3___lambda__1.exit
  %16 = load i32, ptr %4, align 4, !tbaa !8
  %17 = icmp sgt i32 %16, 1
  br i1 %17, label %18, label %20, !prof !11

18:                                               ; preds = %15
  %19 = add nsw i32 %16, -1
  store i32 %19, ptr %4, align 4, !tbaa !8
  br label %lean_dec.exit15

20:                                               ; preds = %15
  %.not.i = icmp eq i32 %16, 0
  br i1 %.not.i, label %lean_dec.exit15, label %21

21:                                               ; preds = %20
  tail call void @lean_dec_ref_cold(ptr noundef nonnull %4) #4
  br label %lean_dec.exit15

lean_dec.exit15:                                  ; preds = %21, %20, %18, %l_Lean_Expr_withAppAux___at_Lean_Elab_Tactic_BVDecide_Frontend_Normalize_isSupportedMatch_verifySimpleEnum___spec__3___lambda__1.exit
  %22 = ptrtoint ptr %3 to i64
  %23 = and i64 %22, 1
  %.not24 = icmp eq i64 %23, 0
  br i1 %.not24, label %24, label %lean_dec.exit14

24:                                               ; preds = %lean_dec.exit15
  %25 = load i32, ptr %3, align 4, !tbaa !8
  %26 = icmp sgt i32 %25, 1
  br i1 %26, label %27, label %29, !prof !11

27:                                               ; preds = %24
  %28 = add nsw i32 %25, -1
  store i32 %28, ptr %3, align 4, !tbaa !8
  br label %lean_dec.exit14

29:                                               ; preds = %24
  %.not.i16 = icmp eq i32 %25, 0
  br i1 %.not.i16, label %lean_dec.exit14, label %30

30:                                               ; preds = %29
  tail call void @lean_dec_ref_cold(ptr noundef nonnull %3) #4
  br label %lean_dec.exit14

lean_dec.exit14:                                  ; preds = %30, %29, %27, %lean_dec.exit15
  %31 = ptrtoint ptr %2 to i64
  %32 = and i64 %31, 1
  %.not25 = icmp eq i64 %32, 0
  br i1 %.not25, label %33, label %lean_dec.exit13

33:                                               ; preds = %lean_dec.exit14
  %34 = load i32, ptr %2, align 4, !tbaa !8
  %35 = icmp sgt i32 %34, 1
  br i1 %35, label %36, label %38, !prof !11

36:                                               ; preds = %33
  %37 = add nsw i32 %34, -1
  store i32 %37, ptr %2, align 4, !tbaa !8
  br label %lean_dec.exit13

38:                                               ; preds = %33
  %.not.i18 = icmp eq i32 %34, 0
  br i1 %.not.i18, label %lean_dec.exit13, label %39

39:                                               ; preds = %38
  tail call void @lean_dec_ref_cold(ptr noundef nonnull %2) #4
  br label %lean_dec.exit13

lean_dec.exit13:                                  ; preds = %39, %38, %36, %lean_dec.exit14
  %40 = ptrtoint ptr %1 to i64
  %41 = and i64 %40, 1
  %.not26 = icmp eq i64 %41, 0
  br i1 %.not26, label %42, label %lean_dec.exit12

42:                                               ; preds = %lean_dec.exit13
  %43 = load i32, ptr %1, align 4, !tbaa !8
  %44 = icmp sgt i32 %43, 1
  br i1 %44, label %45, label %47, !prof !11

45:                                               ; preds = %42
  %46 = add nsw i32 %43, -1
  store i32 %46, ptr %1, align 4, !tbaa !8
  br label %lean_dec.exit12

47:                                               ; preds = %42
  %.not.i20 = icmp eq i32 %43, 0
  br i1 %.not.i20, label %lean_dec.exit12, label %48

48:                                               ; preds = %47
  tail call void @lean_dec_ref_cold(ptr noundef nonnull %1) #4
  br label %lean_dec.exit12

lean_dec.exit12:                                  ; preds = %48, %47, %45, %lean_dec.exit13
  %49 = ptrtoint ptr %0 to i64
  %50 = and i64 %49, 1
  %.not27 = icmp eq i64 %50, 0
  br i1 %.not27, label %51, label %lean_dec.exit

51:                                               ; preds = %lean_dec.exit12
  %52 = load i32, ptr %0, align 4, !tbaa !8
  %53 = icmp sgt i32 %52, 1
  br i1 %53, label %54, label %56, !prof !11

54:                                               ; preds = %51
  %55 = add nsw i32 %52, -1
  store i32 %55, ptr %0, align 4, !tbaa !8
  br label %lean_dec.exit

56:                                               ; preds = %51
  %.not.i22 = icmp eq i32 %52, 0
  br i1 %.not.i22, label %lean_dec.exit, label %57

57:                                               ; preds = %56
  tail call void @lean_dec_ref_cold(ptr noundef nonnull %0) #4
  br label %lean_dec.exit

lean_dec.exit:                                    ; preds = %57, %56, %54, %lean_dec.exit12
  ret ptr %7
}